target datalayout = "e-m:e-p270:32:32-p271:32:32-p272:64:64-i64:64-i128:128-f80:128-n8:16:32:64-S128"
target triple = "x86_64-pc-linux-gnu"

%struct.darktable_t = type { %struct.dt_codepath_t, i32, i32, ptr, ptr, ptr, ptr, ptr, ptr, ptr, ptr, ptr, ptr, ptr, ptr, ptr, ptr, ptr, ptr, ptr, ptr, ptr, ptr, ptr, ptr, ptr, ptr, ptr, ptr, ptr, [64 x %struct.dt_pthread_mutex_t], %struct.dt_pthread_mutex_t, %struct.dt_pthread_mutex_t, %struct.dt_pthread_mutex_t, %struct.dt_pthread_mutex_t, %struct.dt_pthread_mutex_t, ptr, ptr, ptr, ptr, ptr, ptr, ptr, ptr, ptr, ptr, ptr, ptr, ptr, %struct.dt_lua_state_t, ptr, double, ptr, i32, [47 x i32], i32, i32, ptr, ptr, %struct.dt_sys_resources_t, %struct.dt_backthumb_t, %struct.dt_gimp_t }
%struct.dt_codepath_t = type { i8, [3 x i8] }
%struct.dt_pthread_mutex_t = type { %union.pthread_mutex_t }
%union.pthread_mutex_t = type { %struct.__pthread_mutex_s }
%struct.__pthread_mutex_s = type { i32, i32, i32, i32, i32, i16, i16, %struct.__pthread_internal_list }
%struct.__pthread_internal_list = type { ptr, ptr }
%struct.dt_lua_state_t = type { i32 }
%struct.dt_sys_resources_t = type { i64, i64, ptr, ptr, i32 }
%struct.dt_backthumb_t = type { double, double, i32, i32, i32, i32 }
%struct.dt_gimp_t = type { i32, ptr, ptr, i32, i32 }
%struct.dt_lib_module_t = type { %struct.dt_action_t, ptr, ptr, ptr, ptr, ptr, ptr, ptr, ptr, ptr, ptr, ptr, ptr, ptr, ptr, ptr, ptr, ptr, ptr, ptr, ptr, ptr, ptr, ptr, ptr, ptr, ptr, ptr, ptr, ptr, ptr, [128 x i8], ptr, ptr, i32, ptr, ptr, ptr, i32 }
%struct.dt_action_t = type { i32, ptr, ptr, ptr, ptr, ptr }
%struct.dt_lib_t = type { ptr, ptr, %struct.anon }
%struct.anon = type { %struct.anon.0, %struct.anon.1, %struct.anon.2, %struct.anon.3 }
%struct.anon.0 = type { ptr, ptr, ptr, ptr, ptr, i32, i32, i32, ptr, ptr, ptr, ptr, ptr }
%struct.anon.1 = type { ptr, ptr, i32 }
%struct.anon.2 = type { ptr }
%struct.anon.3 = type { i32 }
%struct._GList = type { ptr, ptr, ptr }

@darktable = external global %struct.darktable_t, align 8
@.str.2 = private unnamed_addr constant [41 x i8] c"[sql] %s:%d, function %s(): prepare \22%s\22\00", align 1
@.str.3 = private unnamed_addr constant [112 x i8] c"generated/home/dtcxzyw/WorkSpace/Projects/compilers/llvm-opt-benchmark/bench/darktable/darktable/src/libs/lib.c\00", align 1
@stderr = external global ptr, align 8
@.str.5 = private unnamed_addr constant [53 x i8] c"sqlite3 error: %s:%d, function %s(), query \22%s\22: %s\0A\00", align 1
@.str.6 = private unnamed_addr constant [41 x i8] c"sqlite3 error: %s:%d, function %s(): %s\0A\00", align 1
@__FUNCTION__.dt_lib_presets_apply = private unnamed_addr constant [21 x i8] c"dt_lib_presets_apply\00", align 1
@.str.11 = private unnamed_addr constant [104 x i8] c"SELECT op_params, writeprotect FROM data.presets WHERE operation = ?1 AND op_version = ?2 AND name = ?3\00", align 1
@.str.12 = private unnamed_addr constant [32 x i8] c"plugins/darkroom/%s/last_preset\00", align 1
@.str.13 = private unnamed_addr constant [36 x i8] c"deleting preset for obsolete module\00", align 1

; Function Attrs: nounwind uwtable
define i32 @dt_lib_presets_apply(ptr noundef %0, ptr noundef %1, i32 noundef %2) #0 {
  %4 = alloca ptr, align 8
  %5 = alloca ptr, align 8
  %6 = alloca i32, align 4
  %7 = alloca i32, align 4
  %8 = alloca ptr, align 8
  %9 = alloca i32, align 4
  %10 = alloca i32, align 4
  %11 = alloca i32, align 4
  %12 = alloca i32, align 4
  %13 = alloca i32, align 4
  %14 = alloca ptr, align 8
  %15 = alloca i32, align 4
  %16 = alloca i32, align 4
  %17 = alloca ptr, align 8
  %18 = alloca i32, align 4
  %19 = alloca ptr, align 8
  %20 = alloca ptr, align 8
  store ptr %0, ptr %4, align 8, !tbaa !63
  store ptr %1, ptr %5, align 8, !tbaa !63
  store i32 %2, ptr %6, align 4, !tbaa !62
  call void @llvm.lifetime.start.p0(i64 4, ptr %7) #12
  store i32 1, ptr %7, align 4, !tbaa !62
  call void @llvm.lifetime.start.p0(i64 8, ptr %8) #12
  br label %21

21:                                               ; preds = %3
  br label %22

22:                                               ; preds = %21
  %23 = load i32, ptr getelementptr inbounds nuw (%struct.darktable_t, ptr @darktable, i32 0, i32 2), align 8, !tbaa !21
  %24 = and i32 256, %23
  %25 = icmp ne i32 %24, 0
  br i1 %25, label %26, label %32

26:                                               ; preds = %22
  %27 = load i32, ptr getelementptr inbounds nuw (%struct.darktable_t, ptr @darktable, i32 0, i32 2), align 8, !tbaa !21
  %28 = xor i32 %27, -1
  %29 = and i32 0, %28
  %30 = icmp ne i32 %29, 0
  br i1 %30, label %32, label %31

31:                                               ; preds = %26
  call void (ptr, ...) @dt_print_ext(ptr noundef @.str.2, ptr noundef @.str.3, i32 noundef 336, ptr noundef @__FUNCTION__.dt_lib_presets_apply, ptr noundef @.str.11)
  br label %32

32:                                               ; preds = %31, %26, %22
  br label %33

33:                                               ; preds = %32
  br label %34

34:                                               ; preds = %33
  call void @llvm.lifetime.start.p0(i64 4, ptr %9) #12
  %35 = load ptr, ptr getelementptr inbounds nuw (%struct.darktable_t, ptr @darktable, i32 0, i32 18), align 8, !tbaa !68
  %36 = call ptr @dt_database_get(ptr noundef %35)
  %37 = call i32 @sqlite3_prepare_v2(ptr noundef %36, ptr noundef @.str.11, i32 noundef -1, ptr noundef %8, ptr noundef null)
  store i32 %37, ptr %9, align 4, !tbaa !62
  %38 = load i32, ptr %9, align 4, !tbaa !62
  %39 = icmp ne i32 %38, 0
  br i1 %39, label %40, label %46

40:                                               ; preds = %34
  %41 = load ptr, ptr @stderr, align 8, !tbaa !69
  %42 = load ptr, ptr getelementptr inbounds nuw (%struct.darktable_t, ptr @darktable, i32 0, i32 18), align 8, !tbaa !68
  %43 = call ptr @dt_database_get(ptr noundef %42)
  %44 = call ptr @sqlite3_errmsg(ptr noundef %43)
  %45 = call i32 (ptr, ptr, ...) @fprintf(ptr noundef %41, ptr noundef @.str.5, ptr noundef @.str.3, i32 noundef 336, ptr noundef @__FUNCTION__.dt_lib_presets_apply, ptr noundef @.str.11, ptr noundef %44) #12
  br label %46

46:                                               ; preds = %40, %34
  call void @llvm.lifetime.end.p0(i64 4, ptr %9) #12
  br label %47

47:                                               ; preds = %46
  br label %48

48:                                               ; preds = %47
  call void @llvm.lifetime.start.p0(i64 4, ptr %10) #12
  %49 = load ptr, ptr %8, align 8, !tbaa !71
  %50 = load ptr, ptr %5, align 8, !tbaa !63
  %51 = call i32 @sqlite3_bind_text(ptr noundef %49, i32 noundef 1, ptr noundef %50, i32 noundef -1, ptr noundef inttoptr (i64 -1 to ptr))
  store i32 %51, ptr %10, align 4, !tbaa !62
  %52 = load i32, ptr %10, align 4, !tbaa !62
  %53 = icmp ne i32 %52, 0
  br i1 %53, label %54, label %60

54:                                               ; preds = %48
  %55 = load ptr, ptr @stderr, align 8, !tbaa !69
  %56 = load ptr, ptr getelementptr inbounds nuw (%struct.darktable_t, ptr @darktable, i32 0, i32 18), align 8, !tbaa !68
  %57 = call ptr @dt_database_get(ptr noundef %56)
  %58 = call ptr @sqlite3_errmsg(ptr noundef %57)
  %59 = call i32 (ptr, ptr, ...) @fprintf(ptr noundef %55, ptr noundef @.str.6, ptr noundef @.str.3, i32 noundef 338, ptr noundef @__FUNCTION__.dt_lib_presets_apply, ptr noundef %58) #12
  br label %60

60:                                               ; preds = %54, %48
  call void @llvm.lifetime.end.p0(i64 4, ptr %10) #12
  call void @llvm.lifetime.start.p0(i64 4, ptr %11) #12
  %61 = load ptr, ptr %8, align 8, !tbaa !71
  %62 = load i32, ptr %6, align 4, !tbaa !62
  %63 = call i32 @sqlite3_bind_int(ptr noundef %61, i32 noundef 2, i32 noundef %62)
  store i32 %63, ptr %11, align 4, !tbaa !62
  %64 = load i32, ptr %11, align 4, !tbaa !62
  %65 = icmp ne i32 %64, 0
  br i1 %65, label %66, label %72

66:                                               ; preds = %60
  %67 = load ptr, ptr @stderr, align 8, !tbaa !69
  %68 = load ptr, ptr getelementptr inbounds nuw (%struct.darktable_t, ptr @darktable, i32 0, i32 18), align 8, !tbaa !68
  %69 = call ptr @dt_database_get(ptr noundef %68)
  %70 = call ptr @sqlite3_errmsg(ptr noundef %69)
  %71 = call i32 (ptr, ptr, ...) @fprintf(ptr noundef %67, ptr noundef @.str.6, ptr noundef @.str.3, i32 noundef 339, ptr noundef @__FUNCTION__.dt_lib_presets_apply, ptr noundef %70) #12
  br label %72

72:                                               ; preds = %66, %60
  call void @llvm.lifetime.end.p0(i64 4, ptr %11) #12
  call void @llvm.lifetime.start.p0(i64 4, ptr %12) #12
  %73 = load ptr, ptr %8, align 8, !tbaa !71
  %74 = load ptr, ptr %4, align 8, !tbaa !63
  %75 = call i32 @sqlite3_bind_text(ptr noundef %73, i32 noundef 3, ptr noundef %74, i32 noundef -1, ptr noundef inttoptr (i64 -1 to ptr))
  store i32 %75, ptr %12, align 4, !tbaa !62
  %76 = load i32, ptr %12, align 4, !tbaa !62
  %77 = icmp ne i32 %76, 0
  br i1 %77, label %78, label %84

78:                                               ; preds = %72
  %79 = load ptr, ptr @stderr, align 8, !tbaa !69
  %80 = load ptr, ptr getelementptr inbounds nuw (%struct.darktable_t, ptr @darktable, i32 0, i32 18), align 8, !tbaa !68
  %81 = call ptr @dt_database_get(ptr noundef %80)
  %82 = call ptr @sqlite3_errmsg(ptr noundef %81)
  %83 = call i32 (ptr, ptr, ...) @fprintf(ptr noundef %79, ptr noundef @.str.6, ptr noundef @.str.3, i32 noundef 340, ptr noundef @__FUNCTION__.dt_lib_presets_apply, ptr noundef %82) #12
  br label %84

84:                                               ; preds = %78, %72
  call void @llvm.lifetime.end.p0(i64 4, ptr %12) #12
  call void @llvm.lifetime.start.p0(i64 4, ptr %13) #12
  store i32 0, ptr %13, align 4, !tbaa !62
  %85 = load ptr, ptr %8, align 8, !tbaa !71
  %86 = call i32 @sqlite3_step(ptr noundef %85)
  %87 = icmp eq i32 %86, 100
  br i1 %87, label %88, label %150

88:                                               ; preds = %84
  call void @llvm.lifetime.start.p0(i64 8, ptr %14) #12
  %89 = load ptr, ptr %8, align 8, !tbaa !71
  %90 = call ptr @sqlite3_column_blob(ptr noundef %89, i32 noundef 0)
  store ptr %90, ptr %14, align 8, !tbaa !76
  call void @llvm.lifetime.start.p0(i64 4, ptr %15) #12
  %91 = load ptr, ptr %8, align 8, !tbaa !71
  %92 = call i32 @sqlite3_column_bytes(ptr noundef %91, i32 noundef 0)
  store i32 %92, ptr %15, align 4, !tbaa !62
  call void @llvm.lifetime.start.p0(i64 4, ptr %16) #12
  %93 = load ptr, ptr %8, align 8, !tbaa !71
  %94 = call i32 @sqlite3_column_int(ptr noundef %93, i32 noundef 1)
  store i32 %94, ptr %16, align 4, !tbaa !62
  %95 = load ptr, ptr %14, align 8, !tbaa !76
  %96 = icmp ne ptr %95, null
  br i1 %96, label %97, label %144

97:                                               ; preds = %88
  call void @llvm.lifetime.start.p0(i64 8, ptr %17) #12
  %98 = load ptr, ptr getelementptr inbounds nuw (%struct.darktable_t, ptr @darktable, i32 0, i32 10), align 8, !tbaa !79
  %99 = getelementptr inbounds nuw %struct.dt_lib_t, ptr %98, i32 0, i32 0
  %100 = load ptr, ptr %99, align 8, !tbaa !80
  store ptr %100, ptr %17, align 8, !tbaa !89
  br label %101

101:                                              ; preds = %140, %97
  %102 = load ptr, ptr %17, align 8, !tbaa !89
  %103 = icmp ne ptr %102, null
  br i1 %103, label %105, label %104

104:                                              ; preds = %101
  store i32 6, ptr %18, align 4
  br label %142

105:                                              ; preds = %101
  call void @llvm.lifetime.start.p0(i64 8, ptr %19) #12
  %106 = load ptr, ptr %17, align 8, !tbaa !89
  %107 = getelementptr inbounds nuw %struct._GList, ptr %106, i32 0, i32 0
  %108 = load ptr, ptr %107, align 8, !tbaa !90
  store ptr %108, ptr %19, align 8, !tbaa !6
  %109 = load ptr, ptr %19, align 8, !tbaa !6
  %110 = getelementptr inbounds nuw %struct.dt_lib_module_t, ptr %109, i32 0, i32 31
  %111 = getelementptr inbounds [128 x i8], ptr %110, i64 0, i64 0
  %112 = load ptr, ptr %5, align 8, !tbaa !63
  %113 = call i32 @strncmp(ptr noundef %111, ptr noundef %112, i64 noundef 128) #13
  %114 = icmp ne i32 %113, 0
  br i1 %114, label %128, label %115

115:                                              ; preds = %105
  call void @llvm.lifetime.start.p0(i64 8, ptr %20) #12
  %116 = load ptr, ptr %5, align 8, !tbaa !63
  %117 = call noalias ptr (ptr, ...) @g_strdup_printf(ptr noundef @.str.12, ptr noundef %116)
  store ptr %117, ptr %20, align 8, !tbaa !63
  %118 = load ptr, ptr %20, align 8, !tbaa !63
  %119 = load ptr, ptr %4, align 8, !tbaa !63
  call void @dt_conf_set_string(ptr noundef %118, ptr noundef %119)
  %120 = load ptr, ptr %20, align 8, !tbaa !63
  call void @g_free(ptr noundef %120)
  %121 = load ptr, ptr %19, align 8, !tbaa !6
  %122 = getelementptr inbounds nuw %struct.dt_lib_module_t, ptr %121, i32 0, i32 24
  %123 = load ptr, ptr %122, align 8, !tbaa !92
  %124 = load ptr, ptr %19, align 8, !tbaa !6
  %125 = load ptr, ptr %14, align 8, !tbaa !76
  %126 = load i32, ptr %15, align 4, !tbaa !62
  %127 = call i32 %123(ptr noundef %124, ptr noundef %125, i32 noundef %126)
  store i32 %127, ptr %13, align 4, !tbaa !62
  store i32 6, ptr %18, align 4
  call void @llvm.lifetime.end.p0(i64 8, ptr %20) #12
  br label %129

128:                                              ; preds = %105
  store i32 0, ptr %18, align 4
  br label %129

129:                                              ; preds = %128, %115
  call void @llvm.lifetime.end.p0(i64 8, ptr %19) #12
  %130 = load i32, ptr %18, align 4
  switch i32 %130, label %142 [
    i32 0, label %131
  ]

131:                                              ; preds = %129
  br label %132

132:                                              ; preds = %131
  %133 = load ptr, ptr %17, align 8, !tbaa !89
  %134 = icmp ne ptr %133, null
  br i1 %134, label %135, label %139

135:                                              ; preds = %132
  %136 = load ptr, ptr %17, align 8, !tbaa !89
  %137 = getelementptr inbounds nuw %struct._GList, ptr %136, i32 0, i32 1
  %138 = load ptr, ptr %137, align 8, !tbaa !93
  br label %140

139:                                              ; preds = %132
  br label %140

140:                                              ; preds = %139, %135
  %141 = phi ptr [ %138, %135 ], [ null, %139 ]
  store ptr %141, ptr %17, align 8, !tbaa !89
  br label %101

142:                                              ; preds = %129, %104
  call void @llvm.lifetime.end.p0(i64 8, ptr %17) #12
  br label %143

143:                                              ; preds = %142
  br label %144

144:                                              ; preds = %143, %88
  %145 = load i32, ptr %16, align 4, !tbaa !62
  %146 = icmp ne i32 %145, 0
  br i1 %146, label %149, label %147

147:                                              ; preds = %144
  %148 = load ptr, ptr %4, align 8, !tbaa !63
  call void @dt_gui_store_last_preset(ptr noundef %148)
  br label %149

149:                                              ; preds = %147, %144
  call void @llvm.lifetime.end.p0(i64 4, ptr %16) #12
  call void @llvm.lifetime.end.p0(i64 4, ptr %15) #12
  call void @llvm.lifetime.end.p0(i64 8, ptr %14) #12
  br label %151

150:                                              ; preds = %84
  store i32 0, ptr %7, align 4, !tbaa !62
  br label %151

151:                                              ; preds = %150, %149
  %152 = load ptr, ptr %8, align 8, !tbaa !71
  %153 = call i32 @sqlite3_finalize(ptr noundef %152)
  %154 = load i32, ptr %13, align 4, !tbaa !62
  %155 = icmp ne i32 %154, 0
  br i1 %155, label %156, label %161

156:                                              ; preds = %151
  %157 = call ptr @dcgettext(ptr noundef null, ptr noundef @.str.13, i32 noundef 5) #12
  call void (ptr, ...) @dt_control_log(ptr noundef %157)
  %158 = load ptr, ptr %4, align 8, !tbaa !63
  %159 = load ptr, ptr %5, align 8, !tbaa !63
  %160 = load i32, ptr %6, align 4, !tbaa !62
  call void @dt_lib_presets_remove(ptr noundef %158, ptr noundef %159, i32 noundef %160)
  br label %161

161:                                              ; preds = %156, %151
  %162 = load i32, ptr %7, align 4, !tbaa !62
  store i32 1, ptr %18, align 4
  call void @llvm.lifetime.end.p0(i64 4, ptr %13) #12
  call void @llvm.lifetime.end.p0(i64 8, ptr %8) #12
  call void @llvm.lifetime.end.p0(i64 4, ptr %7) #12
  ret i32 %162
}