; Function Attrs: nounwind uwtable
define range(i32 0, 2) i32 @dt_lib_presets_apply(ptr noundef %0, ptr noundef %1, i32 noundef %2) local_unnamed_addr #0 {
  %4 = alloca ptr, align 8
  call void @llvm.lifetime.start.p0(i64 8, ptr nonnull %4) #19
  %5 = load i32, ptr getelementptr inbounds nuw (i8, ptr @darktable, i64 8), align 8, !tbaa !59
  %6 = and i32 %5, 256
  %.not = icmp eq i32 %6, 0
  br i1 %.not, label %8, label %7

7:                                                ; preds = %3
  tail call void (ptr, ...) @dt_print_ext(ptr noundef nonnull @.str.2, ptr noundef nonnull @.str.3, i32 noundef 336, ptr noundef nonnull @__FUNCTION__.dt_lib_presets_apply, ptr noundef nonnull @.str.11) #19
  br label %8

8:                                                ; preds = %7, %3
  %9 = load ptr, ptr getelementptr inbounds nuw (i8, ptr @darktable, i64 136), align 8, !tbaa !60
  %10 = tail call ptr @dt_database_get(ptr noundef %9) #19
  %11 = call i32 @sqlite3_prepare_v2(ptr noundef %10, ptr noundef nonnull @.str.11, i32 noundef -1, ptr noundef nonnull %4, ptr noundef null) #19
  %.not33 = icmp eq i32 %11, 0
  br i1 %.not33, label %18, label %12

12:                                               ; preds = %8
  %13 = load ptr, ptr @stderr, align 8, !tbaa !61
  %14 = load ptr, ptr getelementptr inbounds nuw (i8, ptr @darktable, i64 136), align 8, !tbaa !60
  %15 = call ptr @dt_database_get(ptr noundef %14) #19
  %16 = call ptr @sqlite3_errmsg(ptr noundef %15) #19
  %17 = call i32 (ptr, ptr, ...) @fprintf(ptr noundef %13, ptr noundef nonnull @.str.5, ptr noundef nonnull @.str.3, i32 noundef 336, ptr noundef nonnull @__FUNCTION__.dt_lib_presets_apply, ptr noundef nonnull @.str.11, ptr noundef %16) #20
  br label %18

18:                                               ; preds = %12, %8
  %19 = load ptr, ptr %4, align 8, !tbaa !63
  %20 = call i32 @sqlite3_bind_text(ptr noundef %19, i32 noundef 1, ptr noundef %1, i32 noundef -1, ptr noundef nonnull inttoptr (i64 -1 to ptr)) #19
  %.not34 = icmp eq i32 %20, 0
  br i1 %.not34, label %27, label %21

21:                                               ; preds = %18
  %22 = load ptr, ptr @stderr, align 8, !tbaa !61
  %23 = load ptr, ptr getelementptr inbounds nuw (i8, ptr @darktable, i64 136), align 8, !tbaa !60
  %24 = call ptr @dt_database_get(ptr noundef %23) #19
  %25 = call ptr @sqlite3_errmsg(ptr noundef %24) #19
  %26 = call i32 (ptr, ptr, ...) @fprintf(ptr noundef %22, ptr noundef nonnull @.str.6, ptr noundef nonnull @.str.3, i32 noundef 338, ptr noundef nonnull @__FUNCTION__.dt_lib_presets_apply, ptr noundef %25) #20
  br label %27

27:                                               ; preds = %21, %18
  %28 = load ptr, ptr %4, align 8, !tbaa !63
  %29 = call i32 @sqlite3_bind_int(ptr noundef %28, i32 noundef 2, i32 noundef %2) #19
  %.not35 = icmp eq i32 %29, 0
  br i1 %.not35, label %36, label %30

30:                                               ; preds = %27
  %31 = load ptr, ptr @stderr, align 8, !tbaa !61
  %32 = load ptr, ptr getelementptr inbounds nuw (i8, ptr @darktable, i64 136), align 8, !tbaa !60
  %33 = call ptr @dt_database_get(ptr noundef %32) #19
  %34 = call ptr @sqlite3_errmsg(ptr noundef %33) #19
  %35 = call i32 (ptr, ptr, ...) @fprintf(ptr noundef %31, ptr noundef nonnull @.str.6, ptr noundef nonnull @.str.3, i32 noundef 339, ptr noundef nonnull @__FUNCTION__.dt_lib_presets_apply, ptr noundef %34) #20
  br label %36

36:                                               ; preds = %30, %27
  %37 = load ptr, ptr %4, align 8, !tbaa !63
  %38 = call i32 @sqlite3_bind_text(ptr noundef %37, i32 noundef 3, ptr noundef %0, i32 noundef -1, ptr noundef nonnull inttoptr (i64 -1 to ptr)) #19
  %.not36 = icmp eq i32 %38, 0
  br i1 %.not36, label %45, label %39

39:                                               ; preds = %36
  %40 = load ptr, ptr @stderr, align 8, !tbaa !61
  %41 = load ptr, ptr getelementptr inbounds nuw (i8, ptr @darktable, i64 136), align 8, !tbaa !60
  %42 = call ptr @dt_database_get(ptr noundef %41) #19
  %43 = call ptr @sqlite3_errmsg(ptr noundef %42) #19
  %44 = call i32 (ptr, ptr, ...) @fprintf(ptr noundef %40, ptr noundef nonnull @.str.6, ptr noundef nonnull @.str.3, i32 noundef 340, ptr noundef nonnull @__FUNCTION__.dt_lib_presets_apply, ptr noundef %43) #20
  br label %45

45:                                               ; preds = %39, %36
  %46 = load ptr, ptr %4, align 8, !tbaa !63
  %47 = call i32 @sqlite3_step(ptr noundef %46) #19
  %48 = icmp eq i32 %47, 100
  %49 = load ptr, ptr %4, align 8, !tbaa !63
  br i1 %48, label %51, label %.thread43

.thread43:                                        ; preds = %45
  %50 = call i32 @sqlite3_finalize(ptr noundef %49) #19
  br label %77

51:                                               ; preds = %45
  %52 = call ptr @sqlite3_column_blob(ptr noundef %49, i32 noundef 0) #19
  %53 = load ptr, ptr %4, align 8, !tbaa !63
  %54 = call i32 @sqlite3_column_bytes(ptr noundef %53, i32 noundef 0) #19
  %55 = load ptr, ptr %4, align 8, !tbaa !63
  %56 = call i32 @sqlite3_column_int(ptr noundef %55, i32 noundef 1) #19
  %.not37 = icmp eq ptr %52, null
  br i1 %.not37, label %.loopexit, label %57

57:                                               ; preds = %51
  %58 = load ptr, ptr getelementptr inbounds nuw (i8, ptr @darktable, i64 72), align 8, !tbaa !71
  %.03148 = load ptr, ptr %58, align 8, !tbaa !72
  %.not3849 = icmp eq ptr %.03148, null
  br i1 %.not3849, label %.loopexit, label %.lr.ph

59:                                               ; preds = %.lr.ph
  %60 = getelementptr inbounds nuw i8, ptr %.03150, i64 8
  %.031 = load ptr, ptr %60, align 8, !tbaa !72
  %.not38 = icmp eq ptr %.031, null
  br i1 %.not38, label %.loopexit, label %.lr.ph

.lr.ph:                                           ; preds = %57, %59
  %.03150 = phi ptr [ %.031, %59 ], [ %.03148, %57 ]
  %61 = load ptr, ptr %.03150, align 8, !tbaa !73
  %62 = getelementptr inbounds nuw i8, ptr %61, i64 288
  %63 = call i32 @strncmp(ptr noundef nonnull dereferenceable(1) %62, ptr noundef nonnull dereferenceable(1) %1, i64 noundef 128) #21
  %.not39.not = icmp eq i32 %63, 0
  br i1 %.not39.not, label %.thread, label %59

.thread:                                          ; preds = %.lr.ph
  %64 = call noalias ptr (ptr, ...) @g_strdup_printf(ptr noundef nonnull @.str.12, ptr noundef nonnull %1) #19
  call void @dt_conf_set_string(ptr noundef %64, ptr noundef %0) #19
  call void @g_free(ptr noundef %64) #19
  %65 = getelementptr inbounds nuw i8, ptr %61, i64 232
  %66 = load ptr, ptr %65, align 8, !tbaa !75
  %67 = call i32 %66(ptr noundef nonnull %61, ptr noundef nonnull %52, i32 noundef %54) #19
  %68 = icmp eq i32 %67, 0
  br label %.loopexit

.loopexit:                                        ; preds = %59, %57, %.thread, %51
  %.029 = phi i1 [ true, %51 ], [ %68, %.thread ], [ true, %57 ], [ true, %59 ]
  %.not40 = icmp eq i32 %56, 0
  br i1 %.not40, label %69, label %72

69:                                               ; preds = %.loopexit
  call void @dt_gui_store_last_preset(ptr noundef %0) #19
  %70 = load ptr, ptr %4, align 8, !tbaa !63
  %71 = call i32 @sqlite3_finalize(ptr noundef %70) #19
  br i1 %.029, label %77, label %75

72:                                               ; preds = %.loopexit
  %73 = load ptr, ptr %4, align 8, !tbaa !63
  %74 = call i32 @sqlite3_finalize(ptr noundef %73) #19
  br i1 %.029, label %77, label %75

75:                                               ; preds = %69, %72
  %76 = call ptr @dcgettext(ptr noundef null, ptr noundef nonnull @.str.13, i32 noundef 5) #19
  call void (ptr, ...) @dt_control_log(ptr noundef %76) #19
  call void @dt_lib_presets_remove(ptr noundef %0, ptr noundef %1, i32 noundef %2)
  br label %77

77:                                               ; preds = %69, %.thread43, %75, %72
  %.046 = phi i32 [ 0, %.thread43 ], [ 1, %75 ], [ 1, %72 ], [ 1, %69 ]
  call void @llvm.lifetime.end.p0(i64 8, ptr nonnull %4) #19
  ret i32 %.046
}